target datalayout = "e-m:e-p270:32:32-p271:32:32-p272:64:64-i64:64-i128:128-f80:128-n8:16:32:64-S128"
target triple = "x86_64-pc-linux-gnu"

%struct.UriParserStateStructW = type { ptr, i32, ptr, ptr }
%struct.UriUriStructW = type { %struct.UriTextRangeStructW, %struct.UriTextRangeStructW, %struct.UriTextRangeStructW, %struct.UriHostDataStructW, %struct.UriTextRangeStructW, ptr, ptr, %struct.UriTextRangeStructW, %struct.UriTextRangeStructW, i32, i32, ptr }
%struct.UriHostDataStructW = type { ptr, ptr, %struct.UriTextRangeStructW }
%struct.UriTextRangeStructW = type { ptr, ptr }

; Function Attrs: inlinehint nounwind uwtable
define internal void @uriStopMallocW(ptr noundef %0, ptr noundef %1) #4 {
  %3 = alloca ptr, align 8
  %4 = alloca ptr, align 8
  store ptr %0, ptr %3, align 8, !tbaa !59
  store ptr %1, ptr %4, align 8, !tbaa !10
  %5 = load ptr, ptr %3, align 8, !tbaa !59
  %6 = getelementptr inbounds nuw %struct.UriParserStateStructW, ptr %5, i32 0, i32 0
  %7 = load ptr, ptr %6, align 8, !tbaa !63
  %8 = load ptr, ptr %4, align 8, !tbaa !10
  %9 = call i32 @uriFreeUriMembersMmW(ptr noundef %7, ptr noundef %8)
  %10 = load ptr, ptr %3, align 8, !tbaa !59
  %11 = getelementptr inbounds nuw %struct.UriParserStateStructW, ptr %10, i32 0, i32 2
  store ptr null, ptr %11, align 8, !tbaa !67
  %12 = load ptr, ptr %3, align 8, !tbaa !59
  %13 = getelementptr inbounds nuw %struct.UriParserStateStructW, ptr %12, i32 0, i32 1
  store i32 3, ptr %13, align 8, !tbaa !68
  ret void
}

; Function Attrs: nounwind uwtable
define internal ptr @uriParseMustBeSegmentNzNcW(ptr noundef %0, ptr noundef %1, ptr noundef %2, ptr noundef %3) #0 {
  %5 = alloca ptr, align 8
  %6 = alloca ptr, align 8
  %7 = alloca ptr, align 8
  %8 = alloca ptr, align 8
  %9 = alloca ptr, align 8
  %10 = alloca ptr, align 8
  %11 = alloca i32, align 4
  %12 = alloca ptr, align 8
  %13 = alloca ptr, align 8
  store ptr %0, ptr %6, align 8, !tbaa !59
  store ptr %1, ptr %7, align 8, !tbaa !61
  store ptr %2, ptr %8, align 8, !tbaa !61
  store ptr %3, ptr %9, align 8, !tbaa !10
  %14 = load ptr, ptr %7, align 8, !tbaa !61
  %15 = load ptr, ptr %8, align 8, !tbaa !61
  %16 = icmp uge ptr %14, %15
  br i1 %16, label %17, label %39

17:                                               ; preds = %4
  %18 = load ptr, ptr %6, align 8, !tbaa !59
  %19 = load ptr, ptr %6, align 8, !tbaa !59
  %20 = getelementptr inbounds nuw %struct.UriParserStateStructW, ptr %19, i32 0, i32 0
  %21 = load ptr, ptr %20, align 8, !tbaa !63
  %22 = getelementptr inbounds nuw %struct.UriUriStructW, ptr %21, i32 0, i32 0
  %23 = getelementptr inbounds nuw %struct.UriTextRangeStructW, ptr %22, i32 0, i32 0
  %24 = load ptr, ptr %23, align 8, !tbaa !76
  %25 = load ptr, ptr %7, align 8, !tbaa !61
  %26 = load ptr, ptr %9, align 8, !tbaa !10
  %27 = call i32 @uriPushPathSegmentW(ptr noundef %18, ptr noundef %24, ptr noundef %25, ptr noundef %26)
  %28 = icmp ne i32 %27, 0
  br i1 %28, label %32, label %29

29:                                               ; preds = %17
  %30 = load ptr, ptr %6, align 8, !tbaa !59
  %31 = load ptr, ptr %9, align 8, !tbaa !10
  call void @uriStopMallocW(ptr noundef %30, ptr noundef %31)
  store ptr null, ptr %5, align 8
  br label %148

32:                                               ; preds = %17
  %33 = load ptr, ptr %6, align 8, !tbaa !59
  %34 = getelementptr inbounds nuw %struct.UriParserStateStructW, ptr %33, i32 0, i32 0
  %35 = load ptr, ptr %34, align 8, !tbaa !63
  %36 = getelementptr inbounds nuw %struct.UriUriStructW, ptr %35, i32 0, i32 0
  %37 = getelementptr inbounds nuw %struct.UriTextRangeStructW, ptr %36, i32 0, i32 0
  store ptr null, ptr %37, align 8, !tbaa !76
  %38 = load ptr, ptr %8, align 8, !tbaa !61
  store ptr %38, ptr %5, align 8
  br label %148

39:                                               ; preds = %4
  %40 = load ptr, ptr %7, align 8, !tbaa !61
  %41 = load i32, ptr %40, align 4, !tbaa !21
  switch i32 %41, label %122 [
    i32 37, label %42
    i32 64, label %58
    i32 33, label %58
    i32 36, label %58
    i32 38, label %58
    i32 40, label %58
    i32 41, label %58
    i32 42, label %58
    i32 44, label %58
    i32 59, label %58
    i32 39, label %58
    i32 43, label %58
    i32 61, label %58
    i32 45, label %58
    i32 46, label %58
    i32 95, label %58
    i32 126, label %58
    i32 48, label %58
    i32 49, label %58
    i32 50, label %58
    i32 51, label %58
    i32 52, label %58
    i32 53, label %58
    i32 54, label %58
    i32 55, label %58
    i32 56, label %58
    i32 57, label %58
    i32 65, label %58
    i32 66, label %58
    i32 67, label %58
    i32 68, label %58
    i32 69, label %58
    i32 70, label %58
    i32 97, label %58
    i32 98, label %58
    i32 99, label %58
    i32 100, label %58
    i32 101, label %58
    i32 102, label %58
    i32 103, label %58
    i32 71, label %58
    i32 104, label %58
    i32 72, label %58
    i32 105, label %58
    i32 73, label %58
    i32 106, label %58
    i32 74, label %58
    i32 107, label %58
    i32 75, label %58
    i32 108, label %58
    i32 76, label %58
    i32 109, label %58
    i32 77, label %58
    i32 110, label %58
    i32 78, label %58
    i32 111, label %58
    i32 79, label %58
    i32 112, label %58
    i32 80, label %58
    i32 113, label %58
    i32 81, label %58
    i32 114, label %58
    i32 82, label %58
    i32 115, label %58
    i32 83, label %58
    i32 116, label %58
    i32 84, label %58
    i32 117, label %58
    i32 85, label %58
    i32 118, label %58
    i32 86, label %58
    i32 119, label %58
    i32 87, label %58
    i32 120, label %58
    i32 88, label %58
    i32 121, label %58
    i32 89, label %58
    i32 122, label %58
    i32 90, label %58
    i32 47, label %65
  ]

42:                                               ; preds = %39
  call void @llvm.lifetime.start.p0(i64 8, ptr %10) #7
  %43 = load ptr, ptr %6, align 8, !tbaa !59
  %44 = load ptr, ptr %7, align 8, !tbaa !61
  %45 = load ptr, ptr %8, align 8, !tbaa !61
  %46 = load ptr, ptr %9, align 8, !tbaa !10
  %47 = call ptr @uriParsePctEncodedW(ptr noundef %43, ptr noundef %44, ptr noundef %45, ptr noundef %46)
  store ptr %47, ptr %10, align 8, !tbaa !61
  %48 = load ptr, ptr %10, align 8, !tbaa !61
  %49 = icmp eq ptr %48, null
  br i1 %49, label %50, label %51

50:                                               ; preds = %42
  store ptr null, ptr %5, align 8
  store i32 1, ptr %11, align 4
  br label %57

51:                                               ; preds = %42
  %52 = load ptr, ptr %6, align 8, !tbaa !59
  %53 = load ptr, ptr %10, align 8, !tbaa !61
  %54 = load ptr, ptr %8, align 8, !tbaa !61
  %55 = load ptr, ptr %9, align 8, !tbaa !10
  %56 = call ptr @uriParseMustBeSegmentNzNcW(ptr noundef %52, ptr noundef %53, ptr noundef %54, ptr noundef %55)
  store ptr %56, ptr %5, align 8
  store i32 1, ptr %11, align 4
  br label %57

57:                                               ; preds = %51, %50
  call void @llvm.lifetime.end.p0(i64 8, ptr %10) #7
  br label %148

58:                                               ; preds = %39, %39, %39, %39, %39, %39, %39, %39, %39, %39, %39, %39, %39, %39, %39, %39, %39, %39, %39, %39, %39, %39, %39, %39, %39, %39, %39, %39, %39, %39, %39, %39, %39, %39, %39, %39, %39, %39, %39, %39, %39, %39, %39, %39, %39, %39, %39, %39, %39, %39, %39, %39, %39, %39, %39, %39, %39, %39, %39, %39, %39, %39, %39, %39, %39, %39, %39, %39, %39, %39, %39, %39, %39, %39, %39, %39, %39, %39
  %59 = load ptr, ptr %6, align 8, !tbaa !59
  %60 = load ptr, ptr %7, align 8, !tbaa !61
  %61 = getelementptr inbounds i32, ptr %60, i64 1
  %62 = load ptr, ptr %8, align 8, !tbaa !61
  %63 = load ptr, ptr %9, align 8, !tbaa !10
  %64 = call ptr @uriParseMustBeSegmentNzNcW(ptr noundef %59, ptr noundef %61, ptr noundef %62, ptr noundef %63)
  store ptr %64, ptr %5, align 8
  br label %148

65:                                               ; preds = %39
  call void @llvm.lifetime.start.p0(i64 8, ptr %12) #7
  call void @llvm.lifetime.start.p0(i64 8, ptr %13) #7
  %66 = load ptr, ptr %6, align 8, !tbaa !59
  %67 = load ptr, ptr %6, align 8, !tbaa !59
  %68 = getelementptr inbounds nuw %struct.UriParserStateStructW, ptr %67, i32 0, i32 0
  %69 = load ptr, ptr %68, align 8, !tbaa !63
  %70 = getelementptr inbounds nuw %struct.UriUriStructW, ptr %69, i32 0, i32 0
  %71 = getelementptr inbounds nuw %struct.UriTextRangeStructW, ptr %70, i32 0, i32 0
  %72 = load ptr, ptr %71, align 8, !tbaa !76
  %73 = load ptr, ptr %7, align 8, !tbaa !61
  %74 = load ptr, ptr %9, align 8, !tbaa !10
  %75 = call i32 @uriPushPathSegmentW(ptr noundef %66, ptr noundef %72, ptr noundef %73, ptr noundef %74)
  %76 = icmp ne i32 %75, 0
  br i1 %76, label %80, label %77

77:                                               ; preds = %65
  %78 = load ptr, ptr %6, align 8, !tbaa !59
  %79 = load ptr, ptr %9, align 8, !tbaa !10
  call void @uriStopMallocW(ptr noundef %78, ptr noundef %79)
  store ptr null, ptr %5, align 8
  store i32 1, ptr %11, align 4
  br label %121

80:                                               ; preds = %65
  %81 = load ptr, ptr %6, align 8, !tbaa !59
  %82 = getelementptr inbounds nuw %struct.UriParserStateStructW, ptr %81, i32 0, i32 0
  %83 = load ptr, ptr %82, align 8, !tbaa !63
  %84 = getelementptr inbounds nuw %struct.UriUriStructW, ptr %83, i32 0, i32 0
  %85 = getelementptr inbounds nuw %struct.UriTextRangeStructW, ptr %84, i32 0, i32 0
  store ptr null, ptr %85, align 8, !tbaa !76
  %86 = load ptr, ptr %6, align 8, !tbaa !59
  %87 = load ptr, ptr %7, align 8, !tbaa !61
  %88 = getelementptr inbounds i32, ptr %87, i64 1
  %89 = load ptr, ptr %8, align 8, !tbaa !61
  %90 = load ptr, ptr %9, align 8, !tbaa !10
  %91 = call ptr @uriParseSegmentW(ptr noundef %86, ptr noundef %88, ptr noundef %89, ptr noundef %90)
  store ptr %91, ptr %13, align 8, !tbaa !61
  %92 = load ptr, ptr %13, align 8, !tbaa !61
  %93 = icmp eq ptr %92, null
  br i1 %93, label %94, label %95

94:                                               ; preds = %80
  store ptr null, ptr %5, align 8
  store i32 1, ptr %11, align 4
  br label %121

95:                                               ; preds = %80
  %96 = load ptr, ptr %6, align 8, !tbaa !59
  %97 = load ptr, ptr %7, align 8, !tbaa !61
  %98 = getelementptr inbounds i32, ptr %97, i64 1
  %99 = load ptr, ptr %13, align 8, !tbaa !61
  %100 = load ptr, ptr %9, align 8, !tbaa !10
  %101 = call i32 @uriPushPathSegmentW(ptr noundef %96, ptr noundef %98, ptr noundef %99, ptr noundef %100)
  %102 = icmp ne i32 %101, 0
  br i1 %102, label %106, label %103

103:                                              ; preds = %95
  %104 = load ptr, ptr %6, align 8, !tbaa !59
  %105 = load ptr, ptr %9, align 8, !tbaa !10
  call void @uriStopMallocW(ptr noundef %104, ptr noundef %105)
  store ptr null, ptr %5, align 8
  store i32 1, ptr %11, align 4
  br label %121

106:                                              ; preds = %95
  %107 = load ptr, ptr %6, align 8, !tbaa !59
  %108 = load ptr, ptr %13, align 8, !tbaa !61
  %109 = load ptr, ptr %8, align 8, !tbaa !61
  %110 = load ptr, ptr %9, align 8, !tbaa !10
  %111 = call ptr @uriParseZeroMoreSlashSegsW(ptr noundef %107, ptr noundef %108, ptr noundef %109, ptr noundef %110)
  store ptr %111, ptr %12, align 8, !tbaa !61
  %112 = load ptr, ptr %12, align 8, !tbaa !61
  %113 = icmp eq ptr %112, null
  br i1 %113, label %114, label %115

114:                                              ; preds = %106
  store ptr null, ptr %5, align 8
  store i32 1, ptr %11, align 4
  br label %121

115:                                              ; preds = %106
  %116 = load ptr, ptr %6, align 8, !tbaa !59
  %117 = load ptr, ptr %12, align 8, !tbaa !61
  %118 = load ptr, ptr %8, align 8, !tbaa !61
  %119 = load ptr, ptr %9, align 8, !tbaa !10
  %120 = call ptr @uriParseUriTailW(ptr noundef %116, ptr noundef %117, ptr noundef %118, ptr noundef %119)
  store ptr %120, ptr %5, align 8
  store i32 1, ptr %11, align 4
  br label %121

121:                                              ; preds = %115, %114, %103, %94, %77
  call void @llvm.lifetime.end.p0(i64 8, ptr %13) #7
  call void @llvm.lifetime.end.p0(i64 8, ptr %12) #7
  br label %148

122:                                              ; preds = %39
  %123 = load ptr, ptr %6, align 8, !tbaa !59
  %124 = load ptr, ptr %6, align 8, !tbaa !59
  %125 = getelementptr inbounds nuw %struct.UriParserStateStructW, ptr %124, i32 0, i32 0
  %126 = load ptr, ptr %125, align 8, !tbaa !63
  %127 = getelementptr inbounds nuw %struct.UriUriStructW, ptr %126, i32 0, i32 0
  %128 = getelementptr inbounds nuw %struct.UriTextRangeStructW, ptr %127, i32 0, i32 0
  %129 = load ptr, ptr %128, align 8, !tbaa !76
  %130 = load ptr, ptr %7, align 8, !tbaa !61
  %131 = load ptr, ptr %9, align 8, !tbaa !10
  %132 = call i32 @uriPushPathSegmentW(ptr noundef %123, ptr noundef %129, ptr noundef %130, ptr noundef %131)
  %133 = icmp ne i32 %132, 0
  br i1 %133, label %137, label %134

134:                                              ; preds = %122
  %135 = load ptr, ptr %6, align 8, !tbaa !59
  %136 = load ptr, ptr %9, align 8, !tbaa !10
  call void @uriStopMallocW(ptr noundef %135, ptr noundef %136)
  store ptr null, ptr %5, align 8
  br label %148

137:                                              ; preds = %122
  %138 = load ptr, ptr %6, align 8, !tbaa !59
  %139 = getelementptr inbounds nuw %struct.UriParserStateStructW, ptr %138, i32 0, i32 0
  %140 = load ptr, ptr %139, align 8, !tbaa !63
  %141 = getelementptr inbounds nuw %struct.UriUriStructW, ptr %140, i32 0, i32 0
  %142 = getelementptr inbounds nuw %struct.UriTextRangeStructW, ptr %141, i32 0, i32 0
  store ptr null, ptr %142, align 8, !tbaa !76
  %143 = load ptr, ptr %6, align 8, !tbaa !59
  %144 = load ptr, ptr %7, align 8, !tbaa !61
  %145 = load ptr, ptr %8, align 8, !tbaa !61
  %146 = load ptr, ptr %9, align 8, !tbaa !10
  %147 = call ptr @uriParseUriTailW(ptr noundef %143, ptr noundef %144, ptr noundef %145, ptr noundef %146)
  store ptr %147, ptr %5, align 8
  br label %148

148:                                              ; preds = %137, %134, %121, %58, %57, %32, %29
  %149 = load ptr, ptr %5, align 8
  ret ptr %149
}